target datalayout = "e-m:e-p270:32:32-p271:32:32-p272:64:64-i64:64-i128:128-f80:128-n8:16:32:64-S128"
target triple = "x86_64-pc-linux-gnu"

@.str = private unnamed_addr constant [39 x i8] c"processing of database \22%s\22 failed: %s\00", align 1
@.str.1 = private unnamed_addr constant [6 x i8] c"42P01\00", align 1

; Function Attrs: nounwind uwtable
define dso_local zeroext i1 @TableCommandResultHandler(ptr noundef %0, ptr noundef %1, ptr noundef %2) #0 {
  %4 = alloca i1, align 1
  %5 = alloca ptr, align 8
  %6 = alloca ptr, align 8
  %7 = alloca ptr, align 8
  %8 = alloca ptr, align 8
  %9 = alloca i32, align 4
  store ptr %0, ptr %5, align 8
  store ptr %1, ptr %6, align 8
  store ptr %2, ptr %7, align 8
  %10 = load ptr, ptr %5, align 8
  %11 = call i32 @PQresultStatus(ptr noundef %10)
  %12 = icmp ne i32 %11, 1
  br i1 %12, label %13, label %32

13:                                               ; preds = %3
  call void @llvm.lifetime.start.p0(i64 8, ptr %8) #8
  %14 = load ptr, ptr %5, align 8
  %15 = call ptr @PQresultErrorField(ptr noundef %14, i32 noundef 67)
  store ptr %15, ptr %8, align 8
  %16 = load ptr, ptr %6, align 8
  %17 = call ptr @PQdb(ptr noundef %16)
  %18 = load ptr, ptr %6, align 8
  %19 = call ptr @PQerrorMessage(ptr noundef %18)
  call void (i32, i32, ptr, ...) @pg_log_generic(i32 noundef 4, i32 noundef 0, ptr noundef @.str, ptr noundef %17, ptr noundef %19)
  %20 = load ptr, ptr %8, align 8
  %21 = icmp ne ptr %20, null
  br i1 %21, label %22, label %28

22:                                               ; preds = %13
  %23 = load ptr, ptr %8, align 8
  %24 = call i32 @strcmp(ptr noundef %23, ptr noundef @.str.1) #9
  %25 = icmp ne i32 %24, 0
  br i1 %25, label %26, label %28

26:                                               ; preds = %22
  %27 = load ptr, ptr %5, align 8
  call void @PQclear(ptr noundef %27)
  store i1 false, ptr %4, align 1
  store i32 1, ptr %9, align 4
  br label %29

28:                                               ; preds = %22, %13
  store i32 0, ptr %9, align 4
  br label %29

29:                                               ; preds = %28, %26
  call void @llvm.lifetime.end.p0(i64 8, ptr %8) #8
  %30 = load i32, ptr %9, align 4
  switch i32 %30, label %35 [
    i32 0, label %31
    i32 1, label %33
  ]

31:                                               ; preds = %29
  br label %32

32:                                               ; preds = %31, %3
  store i1 true, ptr %4, align 1
  br label %33

33:                                               ; preds = %32, %29
  %34 = load i1, ptr %4, align 1
  ret i1 %34

35:                                               ; preds = %29
  unreachable
}