; Function Attrs: nounwind uwtable
define dso_local noundef zeroext i1 @TableCommandResultHandler(ptr noundef %0, ptr noundef %1, ptr noundef readnone captures(none) %2) local_unnamed_addr #0 {
  %4 = tail call i32 @PQresultStatus(ptr noundef %0) #9
  %.not = icmp eq i32 %4, 1
  br i1 %.not, label %.thread, label %5

5:                                                ; preds = %3
  %6 = tail call ptr @PQresultErrorField(ptr noundef %0, i32 noundef 67) #9
  %7 = tail call ptr @PQdb(ptr noundef %1) #9
  %8 = tail call ptr @PQerrorMessage(ptr noundef %1) #9
  tail call void (i32, i32, ptr, ...) @pg_log_generic(i32 noundef 4, i32 noundef 0, ptr noundef nonnull @.str, ptr noundef %7, ptr noundef %8) #9
  %.not10 = icmp eq ptr %6, null
  br i1 %.not10, label %.thread, label %9

9:                                                ; preds = %5
  %10 = tail call i32 @strcmp(ptr noundef nonnull dereferenceable(1) %6, ptr noundef nonnull dereferenceable(6) @.str.1) #10
  %.not11 = icmp eq i32 %10, 0
  br i1 %.not11, label %.thread, label %11

11:                                               ; preds = %9
  tail call void @PQclear(ptr noundef %0) #9
  br label %.thread

.thread:                                          ; preds = %5, %9, %3, %11
  %.1 = phi i1 [ false, %11 ], [ true, %3 ], [ true, %9 ], [ true, %5 ]
  ret i1 %.1
}